target datalayout = "e-m:e-p270:32:32-p271:32:32-p272:64:64-i64:64-i128:128-f80:128-n8:16:32:64-S128"
target triple = "x86_64-pc-linux-gnu"

%struct.SDL_AtomicInt = type { i32 }

@ALSA_hotplug_shutdown = internal global %struct.SDL_AtomicInt zeroinitializer, align 4

; Function Attrs: nounwind uwtable
define internal i32 @ALSA_HotplugThread(ptr noundef %0) #0 {
  %2 = alloca ptr, align 8
  %3 = alloca i64, align 8
  store ptr %0, ptr %2, align 8
  %4 = call zeroext i1 @SDL_SetCurrentThreadPriority_REAL(i32 noundef 0)
  br label %5

5:                                                ; preds = %22, %1
  %6 = call i32 @SDL_GetAtomicInt_REAL(ptr noundef @ALSA_hotplug_shutdown)
  %7 = icmp ne i32 %6, 0
  %8 = xor i1 %7, true
  br i1 %8, label %9, label %23

9:                                                ; preds = %5
  call void @llvm.lifetime.start.p0(i64 8, ptr %3) #7
  %10 = call i64 @SDL_GetTicks_REAL()
  %11 = add i64 %10, 5000
  store i64 %11, ptr %3, align 8
  br label %12

12:                                               ; preds = %21, %9
  %13 = call i32 @SDL_GetAtomicInt_REAL(ptr noundef @ALSA_hotplug_shutdown)
  %14 = icmp ne i32 %13, 0
  br i1 %14, label %19, label %15

15:                                               ; preds = %12
  %16 = call i64 @SDL_GetTicks_REAL()
  %17 = load i64, ptr %3, align 8
  %18 = icmp ult i64 %16, %17
  br label %19

19:                                               ; preds = %15, %12
  %20 = phi i1 [ false, %12 ], [ %18, %15 ]
  br i1 %20, label %21, label %22

21:                                               ; preds = %19
  call void @SDL_Delay_REAL(i32 noundef 100)
  br label %12, !llvm.loop !14

22:                                               ; preds = %19
  call void @ALSA_HotplugIteration(ptr noundef null, ptr noundef null)
  call void @llvm.lifetime.end.p0(i64 8, ptr %3) #7
  br label %5, !llvm.loop !15

23:                                               ; preds = %5
  ret i32 0
}