; Function Attrs: nounwind uwtable
define internal noundef i32 @ALSA_HotplugThread(ptr readnone captures(none) %0) #0 {
  %2 = tail call zeroext i1 @SDL_SetCurrentThreadPriority_REAL(i32 noundef 0) #8
  %3 = tail call i32 @SDL_GetAtomicInt_REAL(ptr noundef nonnull @ALSA_hotplug_shutdown) #8
  %.not4 = icmp eq i32 %3, 0
  br i1 %.not4, label %.lr.ph5, label %._crit_edge

.lr.ph5:                                          ; preds = %1, %.critedge
  %4 = tail call i64 @SDL_GetTicks_REAL() #8
  %5 = add i64 %4, 5000
  %6 = tail call i32 @SDL_GetAtomicInt_REAL(ptr noundef nonnull @ALSA_hotplug_shutdown) #8
  %.not12 = icmp eq i32 %6, 0
  br i1 %.not12, label %.lr.ph, label %.critedge

.lr.ph:                                           ; preds = %.lr.ph5, %9
  %7 = tail call i64 @SDL_GetTicks_REAL() #8
  %8 = icmp ult i64 %7, %5
  br i1 %8, label %9, label %.critedge

9:                                                ; preds = %.lr.ph
  tail call void @SDL_Delay_REAL(i32 noundef 100) #8
  %10 = tail call i32 @SDL_GetAtomicInt_REAL(ptr noundef nonnull @ALSA_hotplug_shutdown) #8
  %.not1 = icmp eq i32 %10, 0
  br i1 %.not1, label %.lr.ph, label %.critedge, !llvm.loop !14

.critedge:                                        ; preds = %.lr.ph, %9, %.lr.ph5
  tail call fastcc void @ALSA_HotplugIteration(ptr noundef null, ptr noundef null)
  %11 = tail call i32 @SDL_GetAtomicInt_REAL(ptr noundef nonnull @ALSA_hotplug_shutdown) #8
  %.not = icmp eq i32 %11, 0
  br i1 %.not, label %.lr.ph5, label %._crit_edge, !llvm.loop !15

._crit_edge:                                      ; preds = %.critedge, %1
  ret i32 0
}